; Function Attrs: mustprogress uwtable
define noundef ptr @_ZN7rocksdb21NewGenericRateLimiterElliNS_11RateLimiter4ModeEb(i64 noundef %rate_bytes_per_sec, i64 noundef %refill_period_us, i32 noundef %fairness, i32 noundef %mode, i1 noundef zeroext %auto_tuned) local_unnamed_addr #0 personality ptr @__gxx_personality_v0 {
entry:
  %call = tail call noalias noundef nonnull dereferenceable(608) ptr @_Znwm(i64 noundef 608) #17
  %call1 = invoke noundef nonnull align 8 dereferenceable(16) ptr @_ZN7rocksdb11SystemClock7DefaultEv()
          to label %invoke.cont unwind label %lpad

invoke.cont:                                      ; preds = %entry
  invoke void @_ZN7rocksdb18GenericRateLimiterC1ElliNS_11RateLimiter4ModeERKSt10shared_ptrINS_11SystemClockEEb(ptr noundef nonnull align 8 dereferenceable(608) %call, i64 noundef %rate_bytes_per_sec, i64 noundef %refill_period_us, i32 noundef %fairness, i32 noundef %mode, ptr noundef nonnull align 8 dereferenceable(16) %call1, i1 noundef zeroext %auto_tuned)
          to label %_ZNSt10unique_ptrIN7rocksdb11RateLimiterESt14default_deleteIS1_EED2Ev.exit unwind label %lpad

_ZNSt10unique_ptrIN7rocksdb11RateLimiterESt14default_deleteIS1_EED2Ev.exit: ; preds = %invoke.cont
  ret ptr %call

lpad:                                             ; preds = %invoke.cont, %entry
  %0 = landingpad { ptr, i32 }
          cleanup
  tail call void @_ZdlPv(ptr noundef nonnull %call) #15
  resume { ptr, i32 } %0
}